target datalayout = "e-m:e-p270:32:32-p271:32:32-p272:64:64-i64:64-i128:128-f80:128-n8:16:32:64-S128"
target triple = "x86_64-pc-linux-gnu"

@php_sha256_crypt.buffer = internal global ptr null, align 8
@php_sha256_crypt.buflen = internal global i32 0, align 4

; Function Attrs: nounwind uwtable
define hidden ptr @php_sha256_crypt(ptr noundef %0, ptr noundef %1) #0 {
  %3 = alloca ptr, align 8
  %4 = alloca ptr, align 8
  %5 = alloca ptr, align 8
  %6 = alloca i32, align 4
  %7 = alloca ptr, align 8
  %8 = alloca i32, align 4
  store ptr %0, ptr %4, align 8, !tbaa !4
  store ptr %1, ptr %5, align 8, !tbaa !4
  call void @llvm.lifetime.start.p0(i64 4, ptr %6) #12
  %9 = load ptr, ptr %5, align 8, !tbaa !4
  %10 = call i64 @strlen(ptr noundef %9) #13
  %11 = trunc i64 %10 to i32
  %12 = sext i32 %11 to i64
  %13 = add i64 21, %12
  %14 = add i64 %13, 1
  %15 = add i64 %14, 43
  %16 = add i64 %15, 1
  %17 = trunc i64 %16 to i32
  store i32 %17, ptr %6, align 4, !tbaa !11
  %18 = load i32, ptr @php_sha256_crypt.buflen, align 4, !tbaa !11
  %19 = load i32, ptr %6, align 4, !tbaa !11
  %20 = icmp slt i32 %18, %19
  br i1 %20, label %21, label %35

21:                                               ; preds = %2
  call void @llvm.lifetime.start.p0(i64 8, ptr %7) #12
  %22 = load ptr, ptr @php_sha256_crypt.buffer, align 8, !tbaa !4
  %23 = load i32, ptr %6, align 4, !tbaa !11
  %24 = sext i32 %23 to i64
  %25 = call ptr @realloc(ptr noundef %22, i64 noundef %24) #16
  store ptr %25, ptr %7, align 8, !tbaa !4
  %26 = load ptr, ptr %7, align 8, !tbaa !4
  %27 = icmp eq ptr %26, null
  br i1 %27, label %28, label %29

28:                                               ; preds = %21
  store ptr null, ptr %3, align 8
  store i32 1, ptr %8, align 4
  br label %32

29:                                               ; preds = %21
  %30 = load ptr, ptr %7, align 8, !tbaa !4
  store ptr %30, ptr @php_sha256_crypt.buffer, align 8, !tbaa !4
  %31 = load i32, ptr %6, align 4, !tbaa !11
  store i32 %31, ptr @php_sha256_crypt.buflen, align 4, !tbaa !11
  store i32 0, ptr %8, align 4
  br label %32

32:                                               ; preds = %29, %28
  call void @llvm.lifetime.end.p0(i64 8, ptr %7) #12
  %33 = load i32, ptr %8, align 4
  switch i32 %33, label %41 [
    i32 0, label %34
  ]

34:                                               ; preds = %32
  br label %35

35:                                               ; preds = %34, %2
  %36 = load ptr, ptr %4, align 8, !tbaa !4
  %37 = load ptr, ptr %5, align 8, !tbaa !4
  %38 = load ptr, ptr @php_sha256_crypt.buffer, align 8, !tbaa !4
  %39 = load i32, ptr @php_sha256_crypt.buflen, align 4, !tbaa !11
  %40 = call ptr @php_sha256_crypt_r(ptr noundef %36, ptr noundef %37, ptr noundef %38, i32 noundef %39)
  store ptr %40, ptr %3, align 8
  store i32 1, ptr %8, align 4
  br label %41

41:                                               ; preds = %35, %32
  call void @llvm.lifetime.end.p0(i64 4, ptr %6) #12
  %42 = load ptr, ptr %3, align 8
  ret ptr %42
}