; Function Attrs: nounwind uwtable
define hidden noundef ptr @php_sha256_crypt(ptr noundef %0, ptr noundef %1) local_unnamed_addr #4 {
  %3 = tail call i64 @strlen(ptr noundef nonnull dereferenceable(1) %1) #15
  %4 = trunc i64 %3 to i32
  %5 = add i32 %4, 66
  %6 = load i32, ptr @php_sha256_crypt.buflen, align 4, !tbaa !11
  %7 = icmp slt i32 %6, %5
  %.pre = load ptr, ptr @php_sha256_crypt.buffer, align 8, !tbaa !4
  br i1 %7, label %8, label %12

8:                                                ; preds = %2
  %9 = zext nneg i32 %5 to i64
  %10 = tail call ptr @realloc(ptr noundef %.pre, i64 noundef %9) #19
  %.not = icmp eq ptr %10, null
  br i1 %.not, label %.critedge, label %11

11:                                               ; preds = %8
  store ptr %10, ptr @php_sha256_crypt.buffer, align 8, !tbaa !4
  store i32 %5, ptr @php_sha256_crypt.buflen, align 4, !tbaa !11
  br label %12

12:                                               ; preds = %11, %2
  %13 = phi i32 [ %5, %11 ], [ %6, %2 ]
  %14 = phi ptr [ %10, %11 ], [ %.pre, %2 ]
  %15 = tail call ptr @php_sha256_crypt_r(ptr noundef %0, ptr noundef nonnull %1, ptr noundef %14, i32 noundef %13)
  br label %.critedge

.critedge:                                        ; preds = %8, %12
  %.1 = phi ptr [ %15, %12 ], [ null, %8 ]
  ret ptr %.1
}